; Function Attrs: nounwind uwtable
define internal noundef i32 @luaProtectedTableError(ptr noundef %0) #0 {
  %2 = tail call i32 @lua_gettop(ptr noundef %0) #11
  %.not = icmp eq i32 %2, 2
  br i1 %.not, label %9, label %3

3:                                                ; preds = %1
  %4 = load i32, ptr getelementptr inbounds nuw (i8, ptr @server, i64 6288), align 8, !tbaa !26
  %5 = icmp sgt i32 %4, 3
  br i1 %5, label %7, label %6

6:                                                ; preds = %3
  tail call void (i32, ptr, ...) @_serverLog(i32 noundef 3, ptr noundef nonnull @.str.47) #11
  br label %7

7:                                                ; preds = %3, %6
  %8 = tail call i32 (ptr, ptr, ...) @luaL_error(ptr noundef %0, ptr noundef nonnull @.str.48) #11
  br label %9

9:                                                ; preds = %7, %1
  %10 = tail call i32 @lua_isstring(ptr noundef %0, i32 noundef -1) #11
  %.not8 = icmp eq i32 %10, 0
  br i1 %.not8, label %11, label %15

11:                                               ; preds = %9
  %12 = tail call i32 @lua_isnumber(ptr noundef %0, i32 noundef -1) #11
  %.not9 = icmp eq i32 %12, 0
  br i1 %.not9, label %13, label %15

13:                                               ; preds = %11
  %14 = tail call i32 (ptr, ptr, ...) @luaL_error(ptr noundef %0, ptr noundef nonnull @.str.49) #11
  br label %15

15:                                               ; preds = %13, %11, %9
  %16 = tail call ptr @lua_tolstring(ptr noundef %0, i32 noundef -1, ptr noundef null) #11
  %17 = tail call i32 (ptr, ptr, ...) @luaL_error(ptr noundef %0, ptr noundef nonnull @.str.50, ptr noundef %16) #11
  ret i32 0
}